; Function Attrs: mustprogress nounwind willreturn uwtable
define void @PMIx_Coord_destruct(ptr noundef captures(address_is_null) %0) local_unnamed_addr #16 {
  %.not.i = icmp eq ptr %0, null
  br i1 %.not.i, label %pmix_bfrops_base_tma_coord_destruct.exit, label %2

2:                                                ; preds = %1
  store i8 0, ptr %0, align 8, !tbaa !31
  %3 = getelementptr inbounds nuw i8, ptr %0, i64 8
  %4 = load ptr, ptr %3, align 8, !tbaa !35
  %.not8.i = icmp eq ptr %4, null
  br i1 %.not8.i, label %pmix_bfrops_base_tma_coord_destruct.exit, label %5

5:                                                ; preds = %2
  tail call void @free(ptr noundef nonnull %4) #44
  tail call void @llvm.memset.p0.i64(ptr noundef nonnull align 8 dereferenceable(16) %3, i8 0, i64 16, i1 false)
  br label %pmix_bfrops_base_tma_coord_destruct.exit

pmix_bfrops_base_tma_coord_destruct.exit:         ; preds = %1, %2, %5
  ret void
}